; Function Attrs: mustprogress uwtable
define internal noalias noundef nonnull ptr @_ZN7testing8internal15TestMetaFactoryIN4absl13cord_internal12_GLOBAL__N_149CordRepBtreeTest_PrependToLeafBeyondCapacity_TestEE17CreateTestFactoryEb(ptr nocapture nonnull readnone align 8 %this, i1 noundef zeroext %parameter) unnamed_addr #3 align 2 personality ptr @__gxx_personality_v0 {
entry:
  %call = tail call noalias noundef nonnull dereferenceable(16) ptr @_Znwm(i64 noundef 16) #30
  %frombool.i = zext i1 %parameter to i8
  store ptr getelementptr inbounds ({ [5 x ptr] }, ptr @_ZTVN7testing8internal24ParameterizedTestFactoryIN4absl13cord_internal12_GLOBAL__N_149CordRepBtreeTest_PrependToLeafBeyondCapacity_TestEEE, i64 0, i32 0, i64 2), ptr %call, align 8
  %parameter_.i = getelementptr inbounds i8, ptr %call, i64 8
  store i8 %frombool.i, ptr %parameter_.i, align 8
  ret ptr %call
}